target datalayout = "e-m:e-p270:32:32-p271:32:32-p272:64:64-i64:64-i128:128-f80:128-n8:16:32:64-S128"
target triple = "x86_64-pc-linux-gnu"

; Function Attrs: nounwind uwtable
define i32 @OSSL_PARAM_BLD_push_BN(ptr noundef %0, ptr noundef %1, ptr noundef %2) #0 {
  %4 = alloca i32, align 4
  %5 = alloca ptr, align 8
  %6 = alloca ptr, align 8
  %7 = alloca ptr, align 8
  store ptr %0, ptr %5, align 8, !tbaa !3
  store ptr %1, ptr %6, align 8, !tbaa !17
  store ptr %2, ptr %7, align 8, !tbaa !23
  %8 = load ptr, ptr %7, align 8, !tbaa !23
  %9 = icmp ne ptr %8, null
  br i1 %9, label %10, label %25

10:                                               ; preds = %3
  %11 = load ptr, ptr %7, align 8, !tbaa !23
  %12 = call i32 @BN_is_negative(ptr noundef %11)
  %13 = icmp ne i32 %12, 0
  br i1 %13, label %14, label %25

14:                                               ; preds = %10
  %15 = load ptr, ptr %5, align 8, !tbaa !3
  %16 = load ptr, ptr %6, align 8, !tbaa !17
  %17 = load ptr, ptr %7, align 8, !tbaa !23
  %18 = load ptr, ptr %7, align 8, !tbaa !23
  %19 = call i32 @BN_num_bits(ptr noundef %18)
  %20 = add nsw i32 %19, 7
  %21 = sdiv i32 %20, 8
  %22 = add nsw i32 %21, 1
  %23 = sext i32 %22 to i64
  %24 = call i32 @push_BN(ptr noundef %15, ptr noundef %16, ptr noundef %17, i64 noundef %23, i32 noundef 1)
  store i32 %24, ptr %4, align 4
  br label %41

25:                                               ; preds = %10, %3
  %26 = load ptr, ptr %5, align 8, !tbaa !3
  %27 = load ptr, ptr %6, align 8, !tbaa !17
  %28 = load ptr, ptr %7, align 8, !tbaa !23
  %29 = load ptr, ptr %7, align 8, !tbaa !23
  %30 = icmp eq ptr %29, null
  br i1 %30, label %31, label %32

31:                                               ; preds = %25
  br label %37

32:                                               ; preds = %25
  %33 = load ptr, ptr %7, align 8, !tbaa !23
  %34 = call i32 @BN_num_bits(ptr noundef %33)
  %35 = add nsw i32 %34, 7
  %36 = sdiv i32 %35, 8
  br label %37

37:                                               ; preds = %32, %31
  %38 = phi i32 [ 0, %31 ], [ %36, %32 ]
  %39 = sext i32 %38 to i64
  %40 = call i32 @push_BN(ptr noundef %26, ptr noundef %27, ptr noundef %28, i64 noundef %39, i32 noundef 2)
  store i32 %40, ptr %4, align 4
  br label %41

41:                                               ; preds = %37, %14
  %42 = load i32, ptr %4, align 4
  ret i32 %42
}