; Function Attrs: nounwind uwtable
define range(i32 0, 2) i32 @OSSL_PARAM_BLD_push_BN(ptr noundef captures(none) %0, ptr noundef %1, ptr noundef %2) local_unnamed_addr #0 {
  %cond = icmp eq ptr %2, null
  br i1 %cond, label %.split11, label %4

4:                                                ; preds = %3
  %5 = tail call i32 @BN_is_negative(ptr noundef nonnull %2) #7
  %.not13 = icmp eq i32 %5, 0
  %6 = tail call i32 @BN_num_bits(ptr noundef nonnull %2) #7
  %7 = add nsw i32 %6, 7
  %8 = sdiv i32 %7, 8
  br i1 %.not13, label %.split, label %9

9:                                                ; preds = %4
  %10 = add nsw i32 %8, 1
  %11 = sext i32 %10 to i64
  %12 = tail call fastcc i32 @push_BN(ptr noundef %0, ptr noundef %1, ptr noundef nonnull %2, i64 noundef %11, i32 noundef 1)
  br label %push_BN.exit

.split11:                                         ; preds = %3
  %13 = tail call noalias ptr @CRYPTO_zalloc(i64 noundef 56, ptr noundef nonnull @.str, i32 noundef 55) #7
  %14 = icmp eq ptr %13, null
  br i1 %14, label %push_BN.exit, label %15

15:                                               ; preds = %.split11
  store ptr %1, ptr %13, align 8, !tbaa !14
  %16 = getelementptr inbounds nuw i8, ptr %13, i64 8
  store i32 2, ptr %16, align 8, !tbaa !18
  %17 = getelementptr inbounds nuw i8, ptr %13, i64 16
  store i64 0, ptr %17, align 8, !tbaa !19
  %18 = tail call i64 @ossl_param_bytes_to_blocks(i64 noundef 0) #7
  %19 = getelementptr inbounds nuw i8, ptr %13, i64 24
  store i64 %18, ptr %19, align 8, !tbaa !20
  %20 = getelementptr inbounds nuw i8, ptr %13, i64 12
  store i32 0, ptr %20, align 4, !tbaa !21
  %21 = load i64, ptr %0, align 8, !tbaa !22
  %22 = add i64 %21, %18
  store i64 %22, ptr %0, align 8, !tbaa !22
  %23 = getelementptr inbounds nuw i8, ptr %0, i64 16
  %24 = load ptr, ptr %23, align 8, !tbaa !3
  %25 = tail call i32 @OPENSSL_sk_push(ptr noundef %24, ptr noundef nonnull %13) #7
  %26 = icmp slt i32 %25, 1
  br i1 %26, label %27, label %param_push.exit.i

27:                                               ; preds = %15
  tail call void @CRYPTO_free(ptr noundef nonnull %13, ptr noundef nonnull @.str, i32 noundef 68) #7
  br label %push_BN.exit

param_push.exit.i:                                ; preds = %15
  %28 = getelementptr inbounds nuw i8, ptr %13, i64 32
  store ptr null, ptr %28, align 8, !tbaa !26
  br label %push_BN.exit

.split:                                           ; preds = %4
  %29 = sext i32 %8 to i64
  %30 = tail call fastcc i32 @push_BN(ptr noundef %0, ptr noundef %1, ptr noundef nonnull %2, i64 noundef %29, i32 noundef 2)
  br label %push_BN.exit

push_BN.exit:                                     ; preds = %param_push.exit.i, %27, %.split11, %.split, %9
  %.0 = phi i32 [ %12, %9 ], [ %30, %.split ], [ 1, %param_push.exit.i ], [ 0, %.split11 ], [ 0, %27 ]
  ret i32 %.0
}